target datalayout = "e-m:e-p270:32:32-p271:32:32-p272:64:64-i64:64-i128:128-f80:128-n8:16:32:64-S128"
target triple = "x86_64-pc-linux-gnu"

%"class.llvm::ThreadPoolStrategy" = type <{ i32, i8, i8, [2 x i8] }>
%struct.cpu_set_t = type { [16 x i64] }

@_ZZN4llvm18get_physical_coresEvE8NumCores = internal global i32 0, align 4
@_ZGVZN4llvm18get_physical_coresEvE8NumCores = internal global i64 0, align 8

; Function Attrs: mustprogress nounwind uwtable
define linkonce_odr noundef nonnull align 4 dereferenceable(4) ptr @_ZSt3minIjERKT_S2_S2_(ptr noundef nonnull align 4 dereferenceable(4) %0, ptr noundef nonnull align 4 dereferenceable(4) %1) #0 comdat {
  %3 = alloca ptr, align 8
  %4 = alloca ptr, align 8
  %5 = alloca ptr, align 8
  store ptr %0, ptr %4, align 8
  store ptr %1, ptr %5, align 8
  %6 = load ptr, ptr %5, align 8
  %7 = load i32, ptr %6, align 4
  %8 = load ptr, ptr %4, align 8
  %9 = load i32, ptr %8, align 4
  %10 = icmp ult i32 %7, %9
  br i1 %10, label %11, label %13

11:                                               ; preds = %2
  %12 = load ptr, ptr %5, align 8
  store ptr %12, ptr %3, align 8
  br label %15

13:                                               ; preds = %2
  %14 = load ptr, ptr %4, align 8
  store ptr %14, ptr %3, align 8
  br label %15

15:                                               ; preds = %13, %11
  %16 = load ptr, ptr %3, align 8
  ret ptr %16
}

; Function Attrs: mustprogress nounwind uwtable
define dso_local noundef i32 @_ZN4llvm18get_physical_coresEv() #0 {
  %1 = load atomic i8, ptr @_ZGVZN4llvm18get_physical_coresEvE8NumCores acquire, align 8
  %2 = icmp eq i8 %1, 0
  br i1 %2, label %3, label %8, !prof !4

3:                                                ; preds = %0
  %4 = call i32 @__cxa_guard_acquire(ptr @_ZGVZN4llvm18get_physical_coresEvE8NumCores) #8
  %5 = icmp ne i32 %4, 0
  br i1 %5, label %6, label %8

6:                                                ; preds = %3
  %7 = call noundef i32 @_ZL27computeHostNumPhysicalCoresv()
  store i32 %7, ptr @_ZZN4llvm18get_physical_coresEvE8NumCores, align 4
  call void @__cxa_guard_release(ptr @_ZGVZN4llvm18get_physical_coresEvE8NumCores) #8
  br label %8

8:                                                ; preds = %6, %3, %0
  %9 = load i32, ptr @_ZZN4llvm18get_physical_coresEvE8NumCores, align 4
  ret i32 %9
}

; Function Attrs: mustprogress nounwind uwtable
define internal noundef i32 @_ZL29computeHostNumHardwareThreadsv() #0 {
  %1 = alloca i32, align 4
  %2 = alloca %struct.cpu_set_t, align 8
  %3 = alloca i32, align 4
  %4 = call i32 @sched_getaffinity(i32 noundef 0, i64 noundef 128, ptr noundef %2) #8
  %5 = icmp eq i32 %4, 0
  br i1 %5, label %6, label %8

6:                                                ; preds = %0
  %7 = call i32 @__sched_cpucount(i64 noundef 128, ptr noundef %2) #8
  store i32 %7, ptr %1, align 4
  br label %15

8:                                                ; preds = %0
  %9 = call noundef i32 @_ZNSt6thread20hardware_concurrencyEv() #8
  store i32 %9, ptr %3, align 4
  %10 = load i32, ptr %3, align 4
  %11 = icmp ne i32 %10, 0
  br i1 %11, label %12, label %14

12:                                               ; preds = %8
  %13 = load i32, ptr %3, align 4
  store i32 %13, ptr %1, align 4
  br label %15

14:                                               ; preds = %8
  store i32 1, ptr %1, align 4
  br label %15

15:                                               ; preds = %14, %12, %6
  %16 = load i32, ptr %1, align 4
  ret i32 %16
}

; Function Attrs: mustprogress nounwind uwtable
define dso_local noundef i32 @_ZNK4llvm18ThreadPoolStrategy20compute_thread_countEv(ptr noundef nonnull align 4 dereferenceable(6) %0) #0 align 2 {
  %2 = alloca i32, align 4
  %3 = alloca ptr, align 8
  %4 = alloca i32, align 4
  %5 = alloca i32, align 4
  store ptr %0, ptr %3, align 8
  %6 = load ptr, ptr %3, align 8
  %7 = getelementptr inbounds nuw %"class.llvm::ThreadPoolStrategy", ptr %6, i32 0, i32 1
  %8 = load i8, ptr %7, align 4
  %9 = trunc i8 %8 to i1
  br i1 %9, label %10, label %12

10:                                               ; preds = %1
  %11 = call noundef i32 @_ZL29computeHostNumHardwareThreadsv()
  br label %14

12:                                               ; preds = %1
  %13 = call noundef i32 @_ZN4llvm18get_physical_coresEv()
  br label %14

14:                                               ; preds = %12, %10
  %15 = phi i32 [ %11, %10 ], [ %13, %12 ]
  store i32 %15, ptr %4, align 4
  %16 = load i32, ptr %4, align 4
  %17 = icmp sle i32 %16, 0
  br i1 %17, label %18, label %19

18:                                               ; preds = %14
  store i32 1, ptr %4, align 4
  br label %19

19:                                               ; preds = %18, %14
  %20 = getelementptr inbounds nuw %"class.llvm::ThreadPoolStrategy", ptr %6, i32 0, i32 0
  %21 = load i32, ptr %20, align 4
  %22 = icmp eq i32 %21, 0
  br i1 %22, label %23, label %25

23:                                               ; preds = %19
  %24 = load i32, ptr %4, align 4
  store i32 %24, ptr %2, align 4
  br label %37

25:                                               ; preds = %19
  %26 = getelementptr inbounds nuw %"class.llvm::ThreadPoolStrategy", ptr %6, i32 0, i32 2
  %27 = load i8, ptr %26, align 1
  %28 = trunc i8 %27 to i1
  br i1 %28, label %32, label %29

29:                                               ; preds = %25
  %30 = getelementptr inbounds nuw %"class.llvm::ThreadPoolStrategy", ptr %6, i32 0, i32 0
  %31 = load i32, ptr %30, align 4
  store i32 %31, ptr %2, align 4
  br label %37

32:                                               ; preds = %25
  %33 = load i32, ptr %4, align 4
  store i32 %33, ptr %5, align 4
  %34 = getelementptr inbounds nuw %"class.llvm::ThreadPoolStrategy", ptr %6, i32 0, i32 0
  %35 = call noundef nonnull align 4 dereferenceable(4) ptr @_ZSt3minIjERKT_S2_S2_(ptr noundef nonnull align 4 dereferenceable(4) %5, ptr noundef nonnull align 4 dereferenceable(4) %34)
  %36 = load i32, ptr %35, align 4
  store i32 %36, ptr %2, align 4
  br label %37

37:                                               ; preds = %32, %29, %23
  %38 = load i32, ptr %2, align 4
  ret i32 %38
}