; Function Attrs: mustprogress nounwind uwtable
define dso_local noundef i32 @_ZNK4llvm18ThreadPoolStrategy20compute_thread_countEv(ptr nocapture noundef nonnull readonly align 4 dereferenceable(6) %0) local_unnamed_addr #0 align 2 {
  %2 = alloca %struct.cpu_set_t, align 8
  %3 = getelementptr inbounds nuw i8, ptr %0, i64 4
  %4 = load i8, ptr %3, align 4
  %5 = trunc i8 %4 to i1
  br i1 %5, label %6, label %13

6:                                                ; preds = %1
  call void @llvm.lifetime.start.p0(i64 128, ptr nonnull %2)
  %7 = call i32 @sched_getaffinity(i32 noundef 0, i64 noundef 128, ptr noundef nonnull %2) #18
  %8 = icmp eq i32 %7, 0
  br i1 %8, label %9, label %11

9:                                                ; preds = %6
  %10 = call i32 @__sched_cpucount(i64 noundef 128, ptr noundef nonnull %2) #18
  br label %_ZL29computeHostNumHardwareThreadsv.exit

11:                                               ; preds = %6
  %12 = call noundef i32 @_ZNSt6thread20hardware_concurrencyEv() #18
  %..i = call i32 @llvm.umax.i32(i32 %12, i32 1)
  br label %_ZL29computeHostNumHardwareThreadsv.exit

_ZL29computeHostNumHardwareThreadsv.exit:         ; preds = %9, %11
  %.0.i = phi i32 [ %10, %9 ], [ %..i, %11 ]
  call void @llvm.lifetime.end.p0(i64 128, ptr nonnull %2)
  br label %21

13:                                               ; preds = %1
  %14 = load atomic i8, ptr @_ZGVZN4llvm18get_physical_coresEvE8NumCores acquire, align 8
  %15 = icmp eq i8 %14, 0
  br i1 %15, label %16, label %_ZN4llvm18get_physical_coresEv.exit, !prof !4

16:                                               ; preds = %13
  %17 = tail call i32 @__cxa_guard_acquire(ptr nonnull @_ZGVZN4llvm18get_physical_coresEvE8NumCores) #18
  %.not.i = icmp eq i32 %17, 0
  br i1 %.not.i, label %_ZN4llvm18get_physical_coresEv.exit, label %18

18:                                               ; preds = %16
  %19 = tail call fastcc noundef i32 @_ZL27computeHostNumPhysicalCoresv()
  store i32 %19, ptr @_ZZN4llvm18get_physical_coresEvE8NumCores, align 4
  tail call void @__cxa_guard_release(ptr nonnull @_ZGVZN4llvm18get_physical_coresEvE8NumCores) #18
  br label %_ZN4llvm18get_physical_coresEv.exit

_ZN4llvm18get_physical_coresEv.exit:              ; preds = %13, %16, %18
  %20 = load i32, ptr @_ZZN4llvm18get_physical_coresEvE8NumCores, align 4
  br label %21

21:                                               ; preds = %_ZN4llvm18get_physical_coresEv.exit, %_ZL29computeHostNumHardwareThreadsv.exit
  %22 = phi i32 [ %.0.i, %_ZL29computeHostNumHardwareThreadsv.exit ], [ %20, %_ZN4llvm18get_physical_coresEv.exit ]
  %spec.store.select = call i32 @llvm.smax.i32(i32 %22, i32 1)
  %23 = load i32, ptr %0, align 4
  %24 = icmp eq i32 %23, 0
  br i1 %24, label %30, label %25

25:                                               ; preds = %21
  %26 = getelementptr inbounds nuw i8, ptr %0, i64 5
  %27 = load i8, ptr %26, align 1
  %28 = trunc i8 %27 to i1
  br i1 %28, label %29, label %30

29:                                               ; preds = %25
  %.sroa.speculated = call i32 @llvm.umin.i32(i32 %23, i32 %spec.store.select)
  br label %30

30:                                               ; preds = %25, %21, %29
  %.0 = phi i32 [ %.sroa.speculated, %29 ], [ %spec.store.select, %21 ], [ %23, %25 ]
  ret i32 %.0
}